; Function Attrs: nounwind uwtable
define ptr @l_Lean_Elab_Term_elabOmission(ptr noundef %0, ptr noundef %1, ptr noundef %2, ptr noundef %3, ptr noundef %4, ptr noundef %5, ptr noundef %6, ptr noundef %7, ptr noundef %8) local_unnamed_addr #0 {
  %10 = load ptr, ptr @l_Lean_Elab_Term_elabOmission___closed__2, align 8, !tbaa !4
  %11 = ptrtoint ptr %6 to i64
  %12 = and i64 %11, 1
  %.not = icmp eq i64 %12, 0
  br i1 %.not, label %13, label %lean_inc.exit24

13:                                               ; preds = %9
  %.val.i = load i32, ptr %6, align 4, !tbaa !8
  %14 = icmp sgt i32 %.val.i, 0
  br i1 %14, label %15, label %17, !prof !15

15:                                               ; preds = %13
  %16 = add nuw i32 %.val.i, 1
  store i32 %16, ptr %6, align 4, !tbaa !8
  br label %lean_inc.exit24

17:                                               ; preds = %13
  %.not.i27 = icmp eq i32 %.val.i, 0
  br i1 %.not.i27, label %lean_inc.exit24, label %18

18:                                               ; preds = %17
  tail call void @lean_inc_ref_cold(ptr noundef nonnull %6) #6
  br label %lean_inc.exit24

lean_inc.exit24:                                  ; preds = %18, %17, %15, %9
  %19 = tail call ptr @l_Lean_logWarning___at___private_Lean_Elab_Term_0__Lean_Elab_Term_checkDeprecatedCore___spec__4(ptr noundef %10, ptr noundef %2, ptr noundef %3, ptr noundef %4, ptr noundef %5, ptr noundef %6, ptr noundef %7, ptr noundef %8) #6
  %20 = getelementptr inbounds nuw i8, ptr %19, i64 16
  %21 = load ptr, ptr %20, align 8, !tbaa !4
  %22 = ptrtoint ptr %21 to i64
  %23 = and i64 %22, 1
  %.not31 = icmp eq i64 %23, 0
  br i1 %.not31, label %24, label %lean_inc.exit

24:                                               ; preds = %lean_inc.exit24
  %.val.i28 = load i32, ptr %21, align 4, !tbaa !8
  %25 = icmp sgt i32 %.val.i28, 0
  br i1 %25, label %26, label %28, !prof !15

26:                                               ; preds = %24
  %27 = add nuw i32 %.val.i28, 1
  store i32 %27, ptr %21, align 4, !tbaa !8
  br label %lean_inc.exit

28:                                               ; preds = %24
  %.not.i29 = icmp eq i32 %.val.i28, 0
  br i1 %.not.i29, label %lean_inc.exit, label %29

29:                                               ; preds = %28
  tail call void @lean_inc_ref_cold(ptr noundef nonnull %21) #6
  br label %lean_inc.exit

lean_inc.exit:                                    ; preds = %29, %28, %26, %lean_inc.exit24
  %30 = ptrtoint ptr %19 to i64
  %31 = and i64 %30, 1
  %.not32 = icmp eq i64 %31, 0
  br i1 %.not32, label %32, label %lean_dec.exit23

32:                                               ; preds = %lean_inc.exit
  %33 = load i32, ptr %19, align 4, !tbaa !8
  %34 = icmp sgt i32 %33, 1
  br i1 %34, label %35, label %37, !prof !15

35:                                               ; preds = %32
  %36 = add nsw i32 %33, -1
  store i32 %36, ptr %19, align 4, !tbaa !8
  br label %lean_dec.exit23

37:                                               ; preds = %32
  %.not.i = icmp eq i32 %33, 0
  br i1 %.not.i, label %lean_dec.exit23, label %38

38:                                               ; preds = %37
  tail call void @lean_dec_ref_cold(ptr noundef nonnull %19) #6
  br label %lean_dec.exit23

lean_dec.exit23:                                  ; preds = %38, %37, %35, %lean_inc.exit
  %39 = tail call ptr @l_Lean_Elab_Term_elabHole(ptr noundef %0, ptr noundef %1, ptr noundef %2, ptr noundef %3, ptr noundef %4, ptr noundef %5, ptr noundef %6, ptr noundef %7, ptr noundef %21)
  br i1 %.not, label %40, label %lean_dec.exit

40:                                               ; preds = %lean_dec.exit23
  %41 = load i32, ptr %6, align 4, !tbaa !8
  %42 = icmp sgt i32 %41, 1
  br i1 %42, label %43, label %45, !prof !15

43:                                               ; preds = %40
  %44 = add nsw i32 %41, -1
  store i32 %44, ptr %6, align 4, !tbaa !8
  br label %lean_dec.exit

45:                                               ; preds = %40
  %.not.i25 = icmp eq i32 %41, 0
  br i1 %.not.i25, label %lean_dec.exit, label %46

46:                                               ; preds = %45
  tail call void @lean_dec_ref_cold(ptr noundef nonnull %6) #6
  br label %lean_dec.exit

lean_dec.exit:                                    ; preds = %46, %45, %43, %lean_dec.exit23
  ret ptr %39
}